; Function Attrs: mustprogress nofree norecurse nosync nounwind willreturn memory(read, inaccessiblemem: none) uwtable
define range(i32 0, 2) i32 @mriStepInnerStepper_SupportsRTolAdaptivity(ptr noundef readonly captures(address_is_null) %0) local_unnamed_addr #3 {
  %2 = icmp eq ptr %0, null
  br i1 %2, label %17, label %3

3:                                                ; preds = %1
  %4 = getelementptr inbounds nuw i8, ptr %0, i64 8
  %5 = load ptr, ptr %4, align 8, !tbaa !103
  %6 = icmp eq ptr %5, null
  br i1 %6, label %17, label %7

7:                                                ; preds = %3
  %8 = getelementptr inbounds nuw i8, ptr %5, i64 24
  %9 = load ptr, ptr %8, align 8, !tbaa !162
  %.not = icmp eq ptr %9, null
  br i1 %.not, label %16, label %10

10:                                               ; preds = %7
  %11 = getelementptr inbounds nuw i8, ptr %5, i64 32
  %12 = load ptr, ptr %11, align 8, !tbaa !163
  %.not7 = icmp eq ptr %12, null
  br i1 %.not7, label %16, label %13

13:                                               ; preds = %10
  %14 = getelementptr inbounds nuw i8, ptr %5, i64 40
  %15 = load ptr, ptr %14, align 8, !tbaa !164
  %.not8 = icmp eq ptr %15, null
  br i1 %.not8, label %16, label %17

16:                                               ; preds = %13, %10, %7
  br label %17

17:                                               ; preds = %13, %3, %1, %16
  %.0 = phi i32 [ 0, %16 ], [ 0, %1 ], [ 0, %3 ], [ 1, %13 ]
  ret i32 %.0
}